target datalayout = "e-m:e-p270:32:32-p271:32:32-p272:64:64-i64:64-i128:128-f80:128-n8:16:32:64-S128"
target triple = "x86_64-pc-linux-gnu"

%class.ExceptionMark = type { ptr }
%class.ThreadShadow = type <{ ptr, ptr, ptr, i32, [4 x i8] }>

@_ZN10Management23_begin_vm_creation_timeE = hidden global ptr null, align 8
@_ZN10Management21_end_vm_creation_timeE = hidden global ptr null, align 8
@_ZN10Management18_vm_init_done_timeE = hidden global ptr null, align 8
@_ZN10Management17_optional_supportE = hidden global { i8, i8, [2 x i8] } { i8 0, i8 0, [2 x i8] undef }, align 4
@.str = private unnamed_addr constant [18 x i8] c"createVmBeginTime\00", align 1
@.str.5 = private unnamed_addr constant [16 x i8] c"createVmEndTime\00", align 1
@.str.6 = private unnamed_addr constant [15 x i8] c"vmInitDoneTime\00", align 1

; Function Attrs: mustprogress nounwind uwtable
define linkonce_odr hidden noundef zeroext i1 @_ZNK12ThreadShadow21has_pending_exceptionEv(ptr noundef nonnull align 8 dereferenceable(28) %0) #1 comdat align 2 {
  %2 = alloca ptr, align 8
  store ptr %0, ptr %2, align 8
  %3 = load ptr, ptr %2, align 8
  %4 = getelementptr inbounds %class.ThreadShadow, ptr %3, i32 0, i32 1
  %5 = load ptr, ptr %4, align 8
  %6 = icmp ne ptr %5, null
  ret i1 %6
}

; Function Attrs: mustprogress nounwind uwtable
define linkonce_odr hidden noundef ptr @_ZN15PerfDataManager15create_variableE9CounterNSPKcN8PerfData5UnitsEP10JavaThread(i32 noundef %0, ptr noundef %1, i32 noundef %2, ptr noundef %3) #1 comdat align 2 {
  %5 = alloca i32, align 4
  %6 = alloca ptr, align 8
  %7 = alloca i32, align 4
  %8 = alloca ptr, align 8
  store i32 %0, ptr %5, align 4
  store ptr %1, ptr %6, align 8
  store i32 %2, ptr %7, align 4
  store ptr %3, ptr %8, align 8
  %9 = load i32, ptr %5, align 4
  %10 = load ptr, ptr %6, align 8
  %11 = load i32, ptr %7, align 4
  %12 = load ptr, ptr %8, align 8
  %13 = call noundef ptr @_ZN15PerfDataManager20create_long_variableE9CounterNSPKcN8PerfData5UnitsElP10JavaThread(i32 noundef %9, ptr noundef %10, i32 noundef %11, i64 noundef 0, ptr noundef %12)
  ret ptr %13
}

; Function Attrs: mustprogress nounwind uwtable
define linkonce_odr hidden noundef ptr @_ZN13ExceptionMark6threadEv(ptr noundef nonnull align 8 dereferenceable(8) %0) #1 comdat align 2 {
  %2 = alloca ptr, align 8
  store ptr %0, ptr %2, align 8
  %3 = load ptr, ptr %2, align 8
  %4 = getelementptr inbounds %class.ExceptionMark, ptr %3, i32 0, i32 0
  %5 = load ptr, ptr %4, align 8
  ret ptr %5
}

; Function Attrs: mustprogress nounwind uwtable
define hidden void @_ZN10Management4initEv() #1 align 2 {
  %1 = alloca %class.ExceptionMark, align 8
  %2 = alloca ptr, align 8
  %3 = alloca i32, align 4
  call void @_ZN13ExceptionMarkC1Ev(ptr noundef nonnull align 8 dereferenceable(8) %1)
  %4 = call noundef ptr @_ZN13ExceptionMark6threadEv(ptr noundef nonnull align 8 dereferenceable(8) %1)
  store ptr %4, ptr %2, align 8
  %5 = load ptr, ptr %2, align 8
  %6 = call noundef ptr @_ZN15PerfDataManager15create_variableE9CounterNSPKcN8PerfData5UnitsEP10JavaThread(i32 noundef 14, ptr noundef @.str, i32 noundef 1, ptr noundef %5)
  store ptr %6, ptr @_ZN10Management23_begin_vm_creation_timeE, align 8
  %7 = load ptr, ptr %2, align 8
  %8 = call noundef zeroext i1 @_ZNK12ThreadShadow21has_pending_exceptionEv(ptr noundef nonnull align 8 dereferenceable(28) %7)
  br i1 %8, label %9, label %10

9:                                                ; preds = %0
  store i32 1, ptr %3, align 4
  br label %60

10:                                               ; preds = %0
  %11 = load ptr, ptr %2, align 8
  %12 = call noundef ptr @_ZN15PerfDataManager15create_variableE9CounterNSPKcN8PerfData5UnitsEP10JavaThread(i32 noundef 14, ptr noundef @.str.5, i32 noundef 1, ptr noundef %11)
  store ptr %12, ptr @_ZN10Management21_end_vm_creation_timeE, align 8
  %13 = load ptr, ptr %2, align 8
  %14 = call noundef zeroext i1 @_ZNK12ThreadShadow21has_pending_exceptionEv(ptr noundef nonnull align 8 dereferenceable(28) %13)
  br i1 %14, label %15, label %16

15:                                               ; preds = %10
  store i32 1, ptr %3, align 4
  br label %60

16:                                               ; preds = %10
  %17 = load ptr, ptr %2, align 8
  %18 = call noundef ptr @_ZN15PerfDataManager15create_variableE9CounterNSPKcN8PerfData5UnitsEP10JavaThread(i32 noundef 14, ptr noundef @.str.6, i32 noundef 1, ptr noundef %17)
  store ptr %18, ptr @_ZN10Management18_vm_init_done_timeE, align 8
  %19 = load ptr, ptr %2, align 8
  %20 = call noundef zeroext i1 @_ZNK12ThreadShadow21has_pending_exceptionEv(ptr noundef nonnull align 8 dereferenceable(28) %19)
  br i1 %20, label %21, label %22

21:                                               ; preds = %16
  store i32 1, ptr %3, align 4
  br label %60

22:                                               ; preds = %16
  %23 = load i32, ptr @_ZN10Management17_optional_supportE, align 4
  %24 = and i32 %23, -2
  %25 = or i32 %24, 1
  store i32 %25, ptr @_ZN10Management17_optional_supportE, align 4
  %26 = load i32, ptr @_ZN10Management17_optional_supportE, align 4
  %27 = and i32 %26, -3
  %28 = or i32 %27, 2
  store i32 %28, ptr @_ZN10Management17_optional_supportE, align 4
  %29 = load i32, ptr @_ZN10Management17_optional_supportE, align 4
  %30 = and i32 %29, -5
  %31 = or i32 %30, 4
  store i32 %31, ptr @_ZN10Management17_optional_supportE, align 4
  %32 = call noundef zeroext i1 @_ZN2os28is_thread_cpu_time_supportedEv()
  br i1 %32, label %33, label %40

33:                                               ; preds = %22
  %34 = load i32, ptr @_ZN10Management17_optional_supportE, align 4
  %35 = and i32 %34, -9
  %36 = or i32 %35, 8
  store i32 %36, ptr @_ZN10Management17_optional_supportE, align 4
  %37 = load i32, ptr @_ZN10Management17_optional_supportE, align 4
  %38 = and i32 %37, -17
  %39 = or i32 %38, 16
  store i32 %39, ptr @_ZN10Management17_optional_supportE, align 4
  br label %47

40:                                               ; preds = %22
  %41 = load i32, ptr @_ZN10Management17_optional_supportE, align 4
  %42 = and i32 %41, -9
  %43 = or i32 %42, 0
  store i32 %43, ptr @_ZN10Management17_optional_supportE, align 4
  %44 = load i32, ptr @_ZN10Management17_optional_supportE, align 4
  %45 = and i32 %44, -17
  %46 = or i32 %45, 0
  store i32 %46, ptr @_ZN10Management17_optional_supportE, align 4
  br label %47

47:                                               ; preds = %40, %33
  %48 = load i32, ptr @_ZN10Management17_optional_supportE, align 4
  %49 = and i32 %48, -33
  %50 = or i32 %49, 32
  store i32 %50, ptr @_ZN10Management17_optional_supportE, align 4
  %51 = load i32, ptr @_ZN10Management17_optional_supportE, align 4
  %52 = and i32 %51, -65
  %53 = or i32 %52, 64
  store i32 %53, ptr @_ZN10Management17_optional_supportE, align 4
  %54 = load i32, ptr @_ZN10Management17_optional_supportE, align 4
  %55 = and i32 %54, -129
  %56 = or i32 %55, 128
  store i32 %56, ptr @_ZN10Management17_optional_supportE, align 4
  %57 = load i32, ptr @_ZN10Management17_optional_supportE, align 4
  %58 = and i32 %57, -257
  %59 = or i32 %58, 256
  store i32 %59, ptr @_ZN10Management17_optional_supportE, align 4
  call void @_ZN4DCmd14register_dcmdsEv()
  store i32 0, ptr %3, align 4
  br label %60

60:                                               ; preds = %47, %21, %15, %9
  call void @_ZN13ExceptionMarkD1Ev(ptr noundef nonnull align 8 dereferenceable(8) %1) #9
  %61 = load i32, ptr %3, align 4
  switch i32 %61, label %63 [
    i32 0, label %62
    i32 1, label %62
  ]

62:                                               ; preds = %60, %60
  ret void

63:                                               ; preds = %60
  unreachable
}