; Function Attrs: mustprogress nounwind uwtable
define hidden void @_ZN10Management4initEv() local_unnamed_addr #0 align 2 {
  %1 = alloca %class.ExceptionMark, align 8
  call void @_ZN13ExceptionMarkC1Ev(ptr noundef nonnull align 8 dereferenceable(8) %1) #17
  %2 = load ptr, ptr %1, align 8
  %3 = call noundef ptr @_ZN15PerfDataManager20create_long_variableE9CounterNSPKcN8PerfData5UnitsElP10JavaThread(i32 noundef 14, ptr noundef nonnull @.str, i32 noundef 1, i64 noundef 0, ptr noundef %2) #17
  store ptr %3, ptr @_ZN10Management23_begin_vm_creation_timeE, align 8
  %4 = getelementptr inbounds i8, ptr %2, i64 8
  %5 = load ptr, ptr %4, align 8
  %.not = icmp eq ptr %5, null
  br i1 %.not, label %6, label %19

6:                                                ; preds = %0
  %7 = call noundef ptr @_ZN15PerfDataManager20create_long_variableE9CounterNSPKcN8PerfData5UnitsElP10JavaThread(i32 noundef 14, ptr noundef nonnull @.str.5, i32 noundef 1, i64 noundef 0, ptr noundef nonnull %2) #17
  store ptr %7, ptr @_ZN10Management21_end_vm_creation_timeE, align 8
  %8 = load ptr, ptr %4, align 8
  %.not6 = icmp eq ptr %8, null
  br i1 %.not6, label %9, label %19

9:                                                ; preds = %6
  %10 = call noundef ptr @_ZN15PerfDataManager20create_long_variableE9CounterNSPKcN8PerfData5UnitsElP10JavaThread(i32 noundef 14, ptr noundef nonnull @.str.6, i32 noundef 1, i64 noundef 0, ptr noundef nonnull %2) #17
  store ptr %10, ptr @_ZN10Management18_vm_init_done_timeE, align 8
  %11 = load ptr, ptr %4, align 8
  %.not7 = icmp eq ptr %11, null
  br i1 %.not7, label %12, label %19

12:                                               ; preds = %9
  %13 = load i32, ptr @_ZN10Management17_optional_supportE, align 4
  %14 = or i32 %13, 7
  store i32 %14, ptr @_ZN10Management17_optional_supportE, align 4
  %15 = call noundef zeroext i1 @_ZN2os28is_thread_cpu_time_supportedEv() #17
  %16 = load i32, ptr @_ZN10Management17_optional_supportE, align 4
  %17 = and i32 %16, -505
  %storemerge = select i1 %15, i32 504, i32 480
  %18 = or disjoint i32 %storemerge, %17
  store i32 %18, ptr @_ZN10Management17_optional_supportE, align 4
  call void @_ZN4DCmd14register_dcmdsEv() #17
  br label %19

19:                                               ; preds = %9, %6, %0, %12
  call void @_ZN13ExceptionMarkD1Ev(ptr noundef nonnull align 8 dereferenceable(8) %1) #17
  ret void
}